target datalayout = "e-m:e-p270:32:32-p271:32:32-p272:64:64-i64:64-i128:128-f80:128-n8:16:32:64-S128"
target triple = "x86_64-pc-linux-gnu"

%struct.nghttp2_session = type { %struct.nghttp2_map, %struct.nghttp2_outbound_queue, %struct.nghttp2_outbound_queue, %struct.nghttp2_outbound_queue, [8 x %struct.anon], %struct.nghttp2_active_outbound_item, %struct.nghttp2_inbound_frame, %struct.nghttp2_hd_deflater, %struct.nghttp2_hd_inflater, %struct.nghttp2_session_callbacks, %struct.nghttp2_mem, ptr, ptr, %struct.nghttp2_ratelim, i64, i64, i64, i64, i64, i64, i64, i64, i64, i64, i64, i64, i64, i64, i32, i32, i32, i32, i32, i32, i32, i32, i32, i32, i32, i32, i8, %struct.nghttp2_settings_storage, %struct.nghttp2_settings_storage, i32, i32, i32, i8, i8, i8, i8, i8, i8, [32 x i8] }
%struct.nghttp2_map = type { ptr, ptr, i64, i64 }
%struct.nghttp2_outbound_queue = type { ptr, ptr, i64 }
%struct.anon = type { %struct.nghttp2_pq }
%struct.nghttp2_pq = type { ptr, ptr, i64, i64, ptr }
%struct.nghttp2_active_outbound_item = type { ptr, %struct.nghttp2_bufs, i32 }
%struct.nghttp2_bufs = type { ptr, ptr, ptr, i64, i64, i64, i64, i64 }
%struct.nghttp2_inbound_frame = type { %union.nghttp2_frame, %union.nghttp2_ext_frame_payload, ptr, %struct.nghttp2_buf, %struct.nghttp2_buf, ptr, i64, i64, i64, i64, i32, [32 x i8] }
%union.nghttp2_frame = type { %struct.nghttp2_headers }
%struct.nghttp2_headers = type { %struct.nghttp2_frame_hd, i64, %struct.nghttp2_priority_spec, ptr, i64, i32 }
%struct.nghttp2_frame_hd = type { i64, i32, i8, i8, i8 }
%struct.nghttp2_priority_spec = type { i32, i32, i8 }
%union.nghttp2_ext_frame_payload = type { %struct.nghttp2_ext_altsvc }
%struct.nghttp2_ext_altsvc = type { ptr, i64, ptr, i64 }
%struct.nghttp2_buf = type { ptr, ptr, ptr, ptr, ptr }
%struct.nghttp2_hd_deflater = type { %struct.nghttp2_hd_context, %struct.nghttp2_hd_map, i64, i64, i8 }
%struct.nghttp2_hd_context = type { %struct.nghttp2_hd_ringbuf, ptr, i64, i64, i32, i8 }
%struct.nghttp2_hd_ringbuf = type { ptr, i64, i64, i64 }
%struct.nghttp2_hd_map = type { [128 x ptr] }
%struct.nghttp2_hd_inflater = type { %struct.nghttp2_hd_context, %struct.nghttp2_hd_huff_decode_context, %struct.nghttp2_buf, %struct.nghttp2_buf, ptr, ptr, ptr, ptr, i64, i64, i64, i64, i64, i32, i32, i8, i8, i8 }
%struct.nghttp2_hd_huff_decode_context = type { i16 }
%struct.nghttp2_session_callbacks = type { ptr, ptr, ptr, ptr, ptr, ptr, ptr, ptr, ptr, ptr, ptr, ptr, ptr, ptr, ptr, ptr, ptr, ptr, ptr, ptr, ptr, ptr, ptr, ptr, ptr, ptr, ptr, ptr }
%struct.nghttp2_mem = type { ptr, ptr, ptr, ptr, ptr }
%struct.nghttp2_ratelim = type { i64, i64, i64, i64 }
%struct.nghttp2_settings_storage = type { i32, i32, i32, i32, i32, i32, i32, i32 }

@.str.1 = private unnamed_addr constant [115 x i8] c"generated/home/dtcxzyw/WorkSpace/Projects/compilers/llvm-opt-benchmark/bench/nghttp2/nghttp2/lib/nghttp2_session.c\00", align 1
@.str.62 = private unnamed_addr constant [19 x i8] c"proclen == readlen\00", align 1
@__PRETTY_FUNCTION__.nghttp2_session_recv = private unnamed_addr constant [44 x i8] c"int nghttp2_session_recv(nghttp2_session *)\00", align 1

; Function Attrs: nounwind uwtable
define internal i64 @session_recv(ptr noundef %0, ptr noundef %1, i64 noundef %2) #0 {
  %4 = alloca i64, align 8
  %5 = alloca ptr, align 8
  %6 = alloca ptr, align 8
  %7 = alloca i64, align 8
  %8 = alloca i64, align 8
  %9 = alloca i32, align 4
  store ptr %0, ptr %5, align 8, !tbaa !7
  store ptr %1, ptr %6, align 8, !tbaa !38
  store i64 %2, ptr %7, align 8, !tbaa !41
  call void @llvm.lifetime.start.p0(i64 8, ptr %8) #10
  %10 = load ptr, ptr %5, align 8, !tbaa !7
  %11 = getelementptr inbounds nuw %struct.nghttp2_session, ptr %10, i32 0, i32 9
  %12 = getelementptr inbounds nuw %struct.nghttp2_session_callbacks, ptr %11, i32 0, i32 3
  %13 = load ptr, ptr %12, align 8, !tbaa !254
  %14 = icmp ne ptr %13, null
  br i1 %14, label %15, label %27

15:                                               ; preds = %3
  %16 = load ptr, ptr %5, align 8, !tbaa !7
  %17 = getelementptr inbounds nuw %struct.nghttp2_session, ptr %16, i32 0, i32 9
  %18 = getelementptr inbounds nuw %struct.nghttp2_session_callbacks, ptr %17, i32 0, i32 3
  %19 = load ptr, ptr %18, align 8, !tbaa !254
  %20 = load ptr, ptr %5, align 8, !tbaa !7
  %21 = load ptr, ptr %6, align 8, !tbaa !38
  %22 = load i64, ptr %7, align 8, !tbaa !41
  %23 = load ptr, ptr %5, align 8, !tbaa !7
  %24 = getelementptr inbounds nuw %struct.nghttp2_session, ptr %23, i32 0, i32 11
  %25 = load ptr, ptr %24, align 8, !tbaa !94
  %26 = call i64 %19(ptr noundef %20, ptr noundef %21, i64 noundef %22, i32 noundef 0, ptr noundef %25)
  store i64 %26, ptr %8, align 8, !tbaa !41
  br label %39

27:                                               ; preds = %3
  %28 = load ptr, ptr %5, align 8, !tbaa !7
  %29 = getelementptr inbounds nuw %struct.nghttp2_session, ptr %28, i32 0, i32 9
  %30 = getelementptr inbounds nuw %struct.nghttp2_session_callbacks, ptr %29, i32 0, i32 2
  %31 = load ptr, ptr %30, align 8, !tbaa !255
  %32 = load ptr, ptr %5, align 8, !tbaa !7
  %33 = load ptr, ptr %6, align 8, !tbaa !38
  %34 = load i64, ptr %7, align 8, !tbaa !41
  %35 = load ptr, ptr %5, align 8, !tbaa !7
  %36 = getelementptr inbounds nuw %struct.nghttp2_session, ptr %35, i32 0, i32 11
  %37 = load ptr, ptr %36, align 8, !tbaa !94
  %38 = call i64 %31(ptr noundef %32, ptr noundef %33, i64 noundef %34, i32 noundef 0, ptr noundef %37)
  store i64 %38, ptr %8, align 8, !tbaa !41
  br label %39

39:                                               ; preds = %27, %15
  %40 = load i64, ptr %8, align 8, !tbaa !41
  %41 = icmp sgt i64 %40, 0
  br i1 %41, label %42, label %48

42:                                               ; preds = %39
  %43 = load i64, ptr %8, align 8, !tbaa !41
  %44 = load i64, ptr %7, align 8, !tbaa !41
  %45 = icmp ugt i64 %43, %44
  br i1 %45, label %46, label %47

46:                                               ; preds = %42
  store i64 -902, ptr %4, align 8
  store i32 1, ptr %9, align 4
  br label %61

47:                                               ; preds = %42
  br label %59

48:                                               ; preds = %39
  %49 = load i64, ptr %8, align 8, !tbaa !41
  %50 = icmp slt i64 %49, 0
  br i1 %50, label %51, label %58

51:                                               ; preds = %48
  %52 = load i64, ptr %8, align 8, !tbaa !41
  %53 = icmp ne i64 %52, -504
  br i1 %53, label %54, label %58

54:                                               ; preds = %51
  %55 = load i64, ptr %8, align 8, !tbaa !41
  %56 = icmp ne i64 %55, -507
  br i1 %56, label %57, label %58

57:                                               ; preds = %54
  store i64 -902, ptr %4, align 8
  store i32 1, ptr %9, align 4
  br label %61

58:                                               ; preds = %54, %51, %48
  br label %59

59:                                               ; preds = %58, %47
  %60 = load i64, ptr %8, align 8, !tbaa !41
  store i64 %60, ptr %4, align 8
  store i32 1, ptr %9, align 4
  br label %61

61:                                               ; preds = %59, %57, %46
  call void @llvm.lifetime.end.p0(i64 8, ptr %8) #10
  %62 = load i64, ptr %4, align 8
  ret i64 %62
}

; Function Attrs: nounwind uwtable
define i32 @nghttp2_session_recv(ptr noundef %0) #0 {
  %2 = alloca i32, align 4
  %3 = alloca ptr, align 8
  %4 = alloca [16384 x i8], align 16
  %5 = alloca i64, align 8
  %6 = alloca i64, align 8
  %7 = alloca i32, align 4
  store ptr %0, ptr %3, align 8, !tbaa !7
  call void @llvm.lifetime.start.p0(i64 16384, ptr %4) #10
  br label %8

8:                                                ; preds = %56, %1
  br label %9

9:                                                ; preds = %8
  call void @llvm.lifetime.start.p0(i64 8, ptr %5) #10
  %10 = load ptr, ptr %3, align 8, !tbaa !7
  %11 = getelementptr inbounds [16384 x i8], ptr %4, i64 0, i64 0
  %12 = call i64 @session_recv(ptr noundef %10, ptr noundef %11, i64 noundef 16384)
  store i64 %12, ptr %5, align 8, !tbaa !41
  %13 = load i64, ptr %5, align 8, !tbaa !41
  %14 = icmp sgt i64 %13, 0
  br i1 %14, label %15, label %35

15:                                               ; preds = %9
  call void @llvm.lifetime.start.p0(i64 8, ptr %6) #10
  %16 = load ptr, ptr %3, align 8, !tbaa !7
  %17 = getelementptr inbounds [16384 x i8], ptr %4, i64 0, i64 0
  %18 = load i64, ptr %5, align 8, !tbaa !41
  %19 = call i64 @nghttp2_session_mem_recv2(ptr noundef %16, ptr noundef %17, i64 noundef %18)
  store i64 %19, ptr %6, align 8, !tbaa !41
  %20 = load i64, ptr %6, align 8, !tbaa !41
  %21 = icmp slt i64 %20, 0
  br i1 %21, label %22, label %25

22:                                               ; preds = %15
  %23 = load i64, ptr %6, align 8, !tbaa !41
  %24 = trunc i64 %23 to i32
  store i32 %24, ptr %2, align 4
  store i32 1, ptr %7, align 4
  br label %32

25:                                               ; preds = %15
  %26 = load i64, ptr %6, align 8, !tbaa !41
  %27 = load i64, ptr %5, align 8, !tbaa !41
  %28 = icmp eq i64 %26, %27
  br i1 %28, label %29, label %30

29:                                               ; preds = %25
  br label %31

30:                                               ; preds = %25
  call void @__assert_fail(ptr noundef @.str.62, ptr noundef @.str.1, i32 noundef 6778, ptr noundef @__PRETTY_FUNCTION__.nghttp2_session_recv) #12
  unreachable

31:                                               ; preds = %29
  store i32 0, ptr %7, align 4
  br label %32

32:                                               ; preds = %31, %22
  call void @llvm.lifetime.end.p0(i64 8, ptr %6) #10
  %33 = load i32, ptr %7, align 4
  switch i32 %33, label %54 [
    i32 0, label %34
  ]

34:                                               ; preds = %32
  br label %53

35:                                               ; preds = %9
  %36 = load i64, ptr %5, align 8, !tbaa !41
  %37 = icmp eq i64 %36, 0
  br i1 %37, label %41, label %38

38:                                               ; preds = %35
  %39 = load i64, ptr %5, align 8, !tbaa !41
  %40 = icmp eq i64 %39, -504
  br i1 %40, label %41, label %42

41:                                               ; preds = %38, %35
  store i32 0, ptr %2, align 4
  store i32 1, ptr %7, align 4
  br label %54

42:                                               ; preds = %38
  %43 = load i64, ptr %5, align 8, !tbaa !41
  %44 = icmp eq i64 %43, -507
  br i1 %44, label %45, label %46

45:                                               ; preds = %42
  store i32 -507, ptr %2, align 4
  store i32 1, ptr %7, align 4
  br label %54

46:                                               ; preds = %42
  %47 = load i64, ptr %5, align 8, !tbaa !41
  %48 = icmp slt i64 %47, 0
  br i1 %48, label %49, label %50

49:                                               ; preds = %46
  store i32 -902, ptr %2, align 4
  store i32 1, ptr %7, align 4
  br label %54

50:                                               ; preds = %46
  br label %51

51:                                               ; preds = %50
  br label %52

52:                                               ; preds = %51
  br label %53

53:                                               ; preds = %52, %34
  store i32 0, ptr %7, align 4
  br label %54

54:                                               ; preds = %53, %49, %45, %41, %32
  call void @llvm.lifetime.end.p0(i64 8, ptr %5) #10
  %55 = load i32, ptr %7, align 4
  switch i32 %55, label %57 [
    i32 0, label %56
  ]

56:                                               ; preds = %54
  br label %8

57:                                               ; preds = %54
  call void @llvm.lifetime.end.p0(i64 16384, ptr %4) #10
  %58 = load i32, ptr %2, align 4
  ret i32 %58
}