; Function Attrs: nounwind uwtable
define i32 @nghttp2_session_recv(ptr noundef %0) local_unnamed_addr #1 {
  %2 = alloca [16384 x i8], align 16
  call void @llvm.lifetime.start.p0(i64 16384, ptr nonnull %2) #16
  %3 = getelementptr inbounds nuw i8, ptr %0, i64 2144
  %4 = getelementptr inbounds nuw i8, ptr %0, i64 2384
  %5 = getelementptr inbounds nuw i8, ptr %0, i64 2136
  br label %6

6:                                                ; preds = %22, %1
  %7 = load ptr, ptr %3, align 8, !tbaa !260
  %.not.i = icmp eq ptr %7, null
  br i1 %.not.i, label %8, label %10

8:                                                ; preds = %6
  %9 = load ptr, ptr %5, align 8, !tbaa !261
  br label %10

10:                                               ; preds = %8, %6
  %.sink23.i = phi ptr [ %9, %8 ], [ %7, %6 ]
  %11 = load ptr, ptr %4, align 8, !tbaa !93
  %12 = call i64 %.sink23.i(ptr noundef nonnull %0, ptr noundef nonnull %2, i64 noundef 16384, i32 noundef 0, ptr noundef %11) #16
  %13 = icmp sgt i64 %12, 0
  br i1 %13, label %14, label %16

14:                                               ; preds = %10
  %15 = icmp samesign ugt i64 %12, 16384
  br i1 %15, label %session_recv.exit.thread25, label %17

16:                                               ; preds = %10
  switch i64 %12, label %session_recv.exit.thread25 [
    i64 -504, label %26
    i64 0, label %26
    i64 -507, label %25
  ]

17:                                               ; preds = %14
  %18 = call i64 @nghttp2_session_mem_recv2(ptr noundef nonnull %0, ptr noundef nonnull %2, i64 noundef %12)
  %19 = icmp sgt i64 %18, -1
  br i1 %19, label %22, label %20

20:                                               ; preds = %17
  %21 = trunc i64 %18 to i32
  br label %26

22:                                               ; preds = %17
  %23 = icmp eq i64 %18, %12
  br i1 %23, label %6, label %24

24:                                               ; preds = %22
  call void @__assert_fail(ptr noundef nonnull @.str.62, ptr noundef nonnull @.str.1, i32 noundef 6778, ptr noundef nonnull @__PRETTY_FUNCTION__.nghttp2_session_recv) #17
  unreachable

25:                                               ; preds = %16
  br label %26

session_recv.exit.thread25:                       ; preds = %14, %16
  br label %26

26:                                               ; preds = %16, %16, %25, %session_recv.exit.thread25, %20
  %.2.ph = phi i32 [ %21, %20 ], [ -902, %session_recv.exit.thread25 ], [ -507, %25 ], [ 0, %16 ], [ 0, %16 ]
  call void @llvm.lifetime.end.p0(i64 16384, ptr nonnull %2) #16
  ret i32 %.2.ph
}